target datalayout = "e-m:e-p270:32:32-p271:32:32-p272:64:64-i64:64-i128:128-f80:128-n8:16:32:64-S128"
target triple = "x86_64-pc-linux-gnu"

%struct.SequenceHeader = type { i32, i32, i32, i32, i8, i32, i32, i8, i32, i32, %struct.OrderHintInfo, i8, i8, i8, i8, i8, i8, i8, i8, i8, i8, i8, i8, i8, i8, i32, i8, i8, i32, i32, i32, i32, i32, i32, i32, i8, i8, i32, [32 x i32], i32, %struct.aom_timing, i8, %struct.aom_dec_model_info, i8, [32 x i8], [32 x i8], [33 x %struct.aom_dec_model_op_parameters] }
%struct.OrderHintInfo = type { i32, i32, i32, i32 }
%struct.aom_timing = type { i32, i32, i32, i32 }
%struct.aom_dec_model_info = type { i32, i32, i32, i32 }
%struct.aom_dec_model_op_parameters = type { i32, i64, i64, i32, i32, i32, i32, i32 }
%struct.CommonTileParams = type { i32, i32, i32, i32, i32, i32, i32, i32, i32, i32, i32, i32, i32, i32, i32, [65 x i32], [65 x i32], i32, i32 }

; Function Attrs: nounwind uwtable
define internal i32 @tile_log2(i32 noundef %0, i32 noundef %1) #0 {
  %3 = alloca i32, align 4
  %4 = alloca i32, align 4
  %5 = alloca i32, align 4
  store i32 %0, ptr %3, align 4
  store i32 %1, ptr %4, align 4
  store i32 0, ptr %5, align 4
  br label %6

6:                                                ; preds = %13, %2
  %7 = load i32, ptr %3, align 4
  %8 = load i32, ptr %5, align 4
  %9 = shl i32 %7, %8
  %10 = load i32, ptr %4, align 4
  %11 = icmp slt i32 %9, %10
  br i1 %11, label %12, label %16

12:                                               ; preds = %6
  br label %13

13:                                               ; preds = %12
  %14 = load i32, ptr %5, align 4
  %15 = add nsw i32 %14, 1
  store i32 %15, ptr %5, align 4
  br label %6, !llvm.loop !4

16:                                               ; preds = %6
  %17 = load i32, ptr %5, align 4
  ret i32 %17
}

; Function Attrs: nounwind uwtable
define hidden void @av1_calculate_tile_cols(ptr noundef %0, i32 noundef %1, i32 noundef %2, ptr noundef %3) #0 {
  %5 = alloca ptr, align 8
  %6 = alloca i32, align 4
  %7 = alloca i32, align 4
  %8 = alloca ptr, align 8
  %9 = alloca i32, align 4
  %10 = alloca i32, align 4
  %11 = alloca i32, align 4
  %12 = alloca i32, align 4
  %13 = alloca i32, align 4
  %14 = alloca i32, align 4
  %15 = alloca i32, align 4
  %16 = alloca i32, align 4
  %17 = alloca i32, align 4
  %18 = alloca i32, align 4
  %19 = alloca i32, align 4
  store ptr %0, ptr %5, align 8
  store i32 %1, ptr %6, align 4
  store i32 %2, ptr %7, align 4
  store ptr %3, ptr %8, align 8
  %20 = load i32, ptr %7, align 4
  %21 = load ptr, ptr %5, align 8
  %22 = getelementptr inbounds nuw %struct.SequenceHeader, ptr %21, i32 0, i32 9
  %23 = load i32, ptr %22, align 4
  %24 = shl i32 1, %23
  %25 = sub nsw i32 %24, 1
  %26 = add nsw i32 %20, %25
  %27 = load ptr, ptr %5, align 8
  %28 = getelementptr inbounds nuw %struct.SequenceHeader, ptr %27, i32 0, i32 9
  %29 = load i32, ptr %28, align 4
  %30 = shl i32 1, %29
  %31 = sub nsw i32 %30, 1
  %32 = xor i32 %31, -1
  %33 = and i32 %26, %32
  store i32 %33, ptr %9, align 4
  %34 = load i32, ptr %6, align 4
  %35 = load ptr, ptr %5, align 8
  %36 = getelementptr inbounds nuw %struct.SequenceHeader, ptr %35, i32 0, i32 9
  %37 = load i32, ptr %36, align 4
  %38 = shl i32 1, %37
  %39 = sub nsw i32 %38, 1
  %40 = add nsw i32 %34, %39
  %41 = load ptr, ptr %5, align 8
  %42 = getelementptr inbounds nuw %struct.SequenceHeader, ptr %41, i32 0, i32 9
  %43 = load i32, ptr %42, align 4
  %44 = shl i32 1, %43
  %45 = sub nsw i32 %44, 1
  %46 = xor i32 %45, -1
  %47 = and i32 %40, %46
  store i32 %47, ptr %10, align 4
  %48 = load i32, ptr %9, align 4
  %49 = load ptr, ptr %5, align 8
  %50 = getelementptr inbounds nuw %struct.SequenceHeader, ptr %49, i32 0, i32 9
  %51 = load i32, ptr %50, align 4
  %52 = ashr i32 %48, %51
  store i32 %52, ptr %11, align 4
  %53 = load i32, ptr %10, align 4
  %54 = load ptr, ptr %5, align 8
  %55 = getelementptr inbounds nuw %struct.SequenceHeader, ptr %54, i32 0, i32 9
  %56 = load i32, ptr %55, align 4
  %57 = ashr i32 %53, %56
  store i32 %57, ptr %12, align 4
  %58 = load ptr, ptr %8, align 8
  %59 = getelementptr inbounds nuw %struct.CommonTileParams, ptr %58, i32 0, i32 4
  store i32 -1, ptr %59, align 4
  %60 = load ptr, ptr %8, align 8
  %61 = getelementptr inbounds nuw %struct.CommonTileParams, ptr %60, i32 0, i32 5
  %62 = load i32, ptr %61, align 4
  %63 = icmp ne i32 %62, 0
  br i1 %63, label %64, label %172

64:                                               ; preds = %4
  %65 = load i32, ptr %11, align 4
  %66 = load ptr, ptr %8, align 8
  %67 = getelementptr inbounds nuw %struct.CommonTileParams, ptr %66, i32 0, i32 6
  %68 = load i32, ptr %67, align 4
  %69 = shl i32 1, %68
  %70 = sub nsw i32 %69, 1
  %71 = add nsw i32 %65, %70
  %72 = load ptr, ptr %8, align 8
  %73 = getelementptr inbounds nuw %struct.CommonTileParams, ptr %72, i32 0, i32 6
  %74 = load i32, ptr %73, align 4
  %75 = shl i32 1, %74
  %76 = sub nsw i32 %75, 1
  %77 = xor i32 %76, -1
  %78 = and i32 %71, %77
  store i32 %78, ptr %15, align 4
  %79 = load ptr, ptr %8, align 8
  %80 = getelementptr inbounds nuw %struct.CommonTileParams, ptr %79, i32 0, i32 6
  %81 = load i32, ptr %80, align 4
  %82 = load i32, ptr %15, align 4
  %83 = ashr i32 %82, %81
  store i32 %83, ptr %15, align 4
  store i32 0, ptr %13, align 4
  store i32 0, ptr %14, align 4
  br label %84

84:                                               ; preds = %98, %64
  %85 = load i32, ptr %14, align 4
  %86 = load i32, ptr %11, align 4
  %87 = icmp slt i32 %85, %86
  br i1 %87, label %88, label %101

88:                                               ; preds = %84
  %89 = load i32, ptr %14, align 4
  %90 = load ptr, ptr %8, align 8
  %91 = getelementptr inbounds nuw %struct.CommonTileParams, ptr %90, i32 0, i32 15
  %92 = load i32, ptr %13, align 4
  %93 = sext i32 %92 to i64
  %94 = getelementptr inbounds [65 x i32], ptr %91, i64 0, i64 %93
  store i32 %89, ptr %94, align 4
  %95 = load i32, ptr %15, align 4
  %96 = load i32, ptr %14, align 4
  %97 = add nsw i32 %96, %95
  store i32 %97, ptr %14, align 4
  br label %98

98:                                               ; preds = %88
  %99 = load i32, ptr %13, align 4
  %100 = add nsw i32 %99, 1
  store i32 %100, ptr %13, align 4
  br label %84, !llvm.loop !6

101:                                              ; preds = %84
  %102 = load i32, ptr %13, align 4
  %103 = load ptr, ptr %8, align 8
  %104 = getelementptr inbounds nuw %struct.CommonTileParams, ptr %103, i32 0, i32 0
  store i32 %102, ptr %104, align 4
  %105 = load i32, ptr %11, align 4
  %106 = load ptr, ptr %8, align 8
  %107 = getelementptr inbounds nuw %struct.CommonTileParams, ptr %106, i32 0, i32 15
  %108 = load i32, ptr %13, align 4
  %109 = sext i32 %108 to i64
  %110 = getelementptr inbounds [65 x i32], ptr %107, i64 0, i64 %109
  store i32 %105, ptr %110, align 4
  %111 = load ptr, ptr %8, align 8
  %112 = getelementptr inbounds nuw %struct.CommonTileParams, ptr %111, i32 0, i32 14
  %113 = load i32, ptr %112, align 4
  %114 = load ptr, ptr %8, align 8
  %115 = getelementptr inbounds nuw %struct.CommonTileParams, ptr %114, i32 0, i32 6
  %116 = load i32, ptr %115, align 4
  %117 = sub nsw i32 %113, %116
  %118 = icmp sgt i32 %117, 0
  br i1 %118, label %119, label %127

119:                                              ; preds = %101
  %120 = load ptr, ptr %8, align 8
  %121 = getelementptr inbounds nuw %struct.CommonTileParams, ptr %120, i32 0, i32 14
  %122 = load i32, ptr %121, align 4
  %123 = load ptr, ptr %8, align 8
  %124 = getelementptr inbounds nuw %struct.CommonTileParams, ptr %123, i32 0, i32 6
  %125 = load i32, ptr %124, align 4
  %126 = sub nsw i32 %122, %125
  br label %128

127:                                              ; preds = %101
  br label %128

128:                                              ; preds = %127, %119
  %129 = phi i32 [ %126, %119 ], [ 0, %127 ]
  %130 = load ptr, ptr %8, align 8
  %131 = getelementptr inbounds nuw %struct.CommonTileParams, ptr %130, i32 0, i32 11
  store i32 %129, ptr %131, align 4
  %132 = load i32, ptr %12, align 4
  %133 = load ptr, ptr %8, align 8
  %134 = getelementptr inbounds nuw %struct.CommonTileParams, ptr %133, i32 0, i32 11
  %135 = load i32, ptr %134, align 4
  %136 = ashr i32 %132, %135
  %137 = load ptr, ptr %8, align 8
  %138 = getelementptr inbounds nuw %struct.CommonTileParams, ptr %137, i32 0, i32 3
  store i32 %136, ptr %138, align 4
  %139 = load i32, ptr %15, align 4
  %140 = load ptr, ptr %5, align 8
  %141 = getelementptr inbounds nuw %struct.SequenceHeader, ptr %140, i32 0, i32 9
  %142 = load i32, ptr %141, align 4
  %143 = shl i32 %139, %142
  %144 = load ptr, ptr %8, align 8
  %145 = getelementptr inbounds nuw %struct.CommonTileParams, ptr %144, i32 0, i32 8
  store i32 %143, ptr %145, align 4
  %146 = load ptr, ptr %8, align 8
  %147 = getelementptr inbounds nuw %struct.CommonTileParams, ptr %146, i32 0, i32 8
  %148 = load i32, ptr %147, align 4
  %149 = load i32, ptr %7, align 4
  %150 = icmp slt i32 %148, %149
  br i1 %150, label %151, label %155

151:                                              ; preds = %128
  %152 = load ptr, ptr %8, align 8
  %153 = getelementptr inbounds nuw %struct.CommonTileParams, ptr %152, i32 0, i32 8
  %154 = load i32, ptr %153, align 4
  br label %157

155:                                              ; preds = %128
  %156 = load i32, ptr %7, align 4
  br label %157

157:                                              ; preds = %155, %151
  %158 = phi i32 [ %154, %151 ], [ %156, %155 ]
  %159 = load ptr, ptr %8, align 8
  %160 = getelementptr inbounds nuw %struct.CommonTileParams, ptr %159, i32 0, i32 8
  store i32 %158, ptr %160, align 4
  %161 = load ptr, ptr %8, align 8
  %162 = getelementptr inbounds nuw %struct.CommonTileParams, ptr %161, i32 0, i32 0
  %163 = load i32, ptr %162, align 4
  %164 = icmp sgt i32 %163, 1
  br i1 %164, label %165, label %171

165:                                              ; preds = %157
  %166 = load ptr, ptr %8, align 8
  %167 = getelementptr inbounds nuw %struct.CommonTileParams, ptr %166, i32 0, i32 8
  %168 = load i32, ptr %167, align 4
  %169 = load ptr, ptr %8, align 8
  %170 = getelementptr inbounds nuw %struct.CommonTileParams, ptr %169, i32 0, i32 4
  store i32 %168, ptr %170, align 4
  br label %171

171:                                              ; preds = %165, %157
  br label %271

172:                                              ; preds = %4
  %173 = load i32, ptr %12, align 4
  %174 = load i32, ptr %11, align 4
  %175 = mul nsw i32 %173, %174
  store i32 %175, ptr %16, align 4
  store i32 1, ptr %17, align 4
  store i32 65536, ptr %18, align 4
  %176 = load ptr, ptr %8, align 8
  %177 = getelementptr inbounds nuw %struct.CommonTileParams, ptr %176, i32 0, i32 0
  %178 = load i32, ptr %177, align 4
  %179 = call i32 @tile_log2(i32 noundef 1, i32 noundef %178)
  %180 = load ptr, ptr %8, align 8
  %181 = getelementptr inbounds nuw %struct.CommonTileParams, ptr %180, i32 0, i32 6
  store i32 %179, ptr %181, align 4
  store i32 0, ptr %13, align 4
  br label %182

182:                                              ; preds = %229, %172
  %183 = load i32, ptr %13, align 4
  %184 = load ptr, ptr %8, align 8
  %185 = getelementptr inbounds nuw %struct.CommonTileParams, ptr %184, i32 0, i32 0
  %186 = load i32, ptr %185, align 4
  %187 = icmp slt i32 %183, %186
  br i1 %187, label %188, label %232

188:                                              ; preds = %182
  %189 = load ptr, ptr %8, align 8
  %190 = getelementptr inbounds nuw %struct.CommonTileParams, ptr %189, i32 0, i32 15
  %191 = load i32, ptr %13, align 4
  %192 = add nsw i32 %191, 1
  %193 = sext i32 %192 to i64
  %194 = getelementptr inbounds [65 x i32], ptr %190, i64 0, i64 %193
  %195 = load i32, ptr %194, align 4
  %196 = load ptr, ptr %8, align 8
  %197 = getelementptr inbounds nuw %struct.CommonTileParams, ptr %196, i32 0, i32 15
  %198 = load i32, ptr %13, align 4
  %199 = sext i32 %198 to i64
  %200 = getelementptr inbounds [65 x i32], ptr %197, i64 0, i64 %199
  %201 = load i32, ptr %200, align 4
  %202 = sub nsw i32 %195, %201
  store i32 %202, ptr %19, align 4
  %203 = load i32, ptr %17, align 4
  %204 = load i32, ptr %19, align 4
  %205 = icmp sgt i32 %203, %204
  br i1 %205, label %206, label %208

206:                                              ; preds = %188
  %207 = load i32, ptr %17, align 4
  br label %210

208:                                              ; preds = %188
  %209 = load i32, ptr %19, align 4
  br label %210

210:                                              ; preds = %208, %206
  %211 = phi i32 [ %207, %206 ], [ %209, %208 ]
  store i32 %211, ptr %17, align 4
  %212 = load i32, ptr %13, align 4
  %213 = load ptr, ptr %8, align 8
  %214 = getelementptr inbounds nuw %struct.CommonTileParams, ptr %213, i32 0, i32 0
  %215 = load i32, ptr %214, align 4
  %216 = sub nsw i32 %215, 1
  %217 = icmp slt i32 %212, %216
  br i1 %217, label %218, label %228

218:                                              ; preds = %210
  %219 = load i32, ptr %18, align 4
  %220 = load i32, ptr %19, align 4
  %221 = icmp slt i32 %219, %220
  br i1 %221, label %222, label %224

222:                                              ; preds = %218
  %223 = load i32, ptr %18, align 4
  br label %226

224:                                              ; preds = %218
  %225 = load i32, ptr %19, align 4
  br label %226

226:                                              ; preds = %224, %222
  %227 = phi i32 [ %223, %222 ], [ %225, %224 ]
  store i32 %227, ptr %18, align 4
  br label %228

228:                                              ; preds = %226, %210
  br label %229

229:                                              ; preds = %228
  %230 = load i32, ptr %13, align 4
  %231 = add nsw i32 %230, 1
  store i32 %231, ptr %13, align 4
  br label %182, !llvm.loop !7

232:                                              ; preds = %182
  %233 = load ptr, ptr %8, align 8
  %234 = getelementptr inbounds nuw %struct.CommonTileParams, ptr %233, i32 0, i32 14
  %235 = load i32, ptr %234, align 4
  %236 = icmp ne i32 %235, 0
  br i1 %236, label %237, label %244

237:                                              ; preds = %232
  %238 = load ptr, ptr %8, align 8
  %239 = getelementptr inbounds nuw %struct.CommonTileParams, ptr %238, i32 0, i32 14
  %240 = load i32, ptr %239, align 4
  %241 = add nsw i32 %240, 1
  %242 = load i32, ptr %16, align 4
  %243 = ashr i32 %242, %241
  store i32 %243, ptr %16, align 4
  br label %244

244:                                              ; preds = %237, %232
  %245 = load i32, ptr %16, align 4
  %246 = load i32, ptr %17, align 4
  %247 = sdiv i32 %245, %246
  %248 = icmp sgt i32 %247, 1
  br i1 %248, label %249, label %253

249:                                              ; preds = %244
  %250 = load i32, ptr %16, align 4
  %251 = load i32, ptr %17, align 4
  %252 = sdiv i32 %250, %251
  br label %254

253:                                              ; preds = %244
  br label %254

254:                                              ; preds = %253, %249
  %255 = phi i32 [ %252, %249 ], [ 1, %253 ]
  %256 = load ptr, ptr %8, align 8
  %257 = getelementptr inbounds nuw %struct.CommonTileParams, ptr %256, i32 0, i32 3
  store i32 %255, ptr %257, align 4
  %258 = load ptr, ptr %8, align 8
  %259 = getelementptr inbounds nuw %struct.CommonTileParams, ptr %258, i32 0, i32 0
  %260 = load i32, ptr %259, align 4
  %261 = icmp sgt i32 %260, 1
  br i1 %261, label %262, label %270

262:                                              ; preds = %254
  %263 = load i32, ptr %18, align 4
  %264 = load ptr, ptr %5, align 8
  %265 = getelementptr inbounds nuw %struct.SequenceHeader, ptr %264, i32 0, i32 9
  %266 = load i32, ptr %265, align 4
  %267 = shl i32 %263, %266
  %268 = load ptr, ptr %8, align 8
  %269 = getelementptr inbounds nuw %struct.CommonTileParams, ptr %268, i32 0, i32 4
  store i32 %267, ptr %269, align 4
  br label %270

270:                                              ; preds = %262, %254
  br label %271

271:                                              ; preds = %270, %171
  ret void
}