; Function Attrs: nofree norecurse nosync nounwind memory(argmem: readwrite) uwtable
define hidden void @av1_calculate_tile_cols(ptr nocapture noundef readonly %0, i32 noundef %1, i32 noundef %2, ptr nocapture noundef %3) local_unnamed_addr #1 {
  %5 = getelementptr inbounds nuw i8, ptr %0, i64 36
  %6 = load i32, ptr %5, align 4
  %notmask = shl nsw i32 -1, %6
  %7 = xor i32 %notmask, -1
  %8 = add nsw i32 %2, %7
  %9 = and i32 %8, %notmask
  %10 = add nsw i32 %1, %7
  %11 = and i32 %10, %notmask
  %12 = ashr i32 %9, %6
  %13 = ashr i32 %11, %6
  %14 = getelementptr inbounds nuw i8, ptr %3, i64 16
  store i32 -1, ptr %14, align 4
  %15 = getelementptr inbounds nuw i8, ptr %3, i64 20
  %16 = load i32, ptr %15, align 4
  %.not = icmp eq i32 %16, 0
  br i1 %.not, label %45, label %17

17:                                               ; preds = %4
  %18 = getelementptr inbounds nuw i8, ptr %3, i64 24
  %19 = load i32, ptr %18, align 4
  %notmask94 = shl nsw i32 -1, %19
  %20 = xor i32 %notmask94, -1
  %21 = add nsw i32 %12, %20
  %22 = and i32 %21, %notmask94
  %23 = ashr i32 %22, %19
  %24 = icmp sgt i32 %12, 0
  br i1 %24, label %.lr.ph, label %._crit_edge

.lr.ph:                                           ; preds = %17
  %25 = getelementptr inbounds nuw i8, ptr %3, i64 60
  br label %26

26:                                               ; preds = %.lr.ph, %26
  %indvars.iv = phi i64 [ 0, %.lr.ph ], [ %indvars.iv.next, %26 ]
  %.08595 = phi i32 [ 0, %.lr.ph ], [ %28, %26 ]
  %27 = getelementptr inbounds [65 x i32], ptr %25, i64 0, i64 %indvars.iv
  store i32 %.08595, ptr %27, align 4
  %28 = add nuw nsw i32 %.08595, %23
  %indvars.iv.next = add nuw nsw i64 %indvars.iv, 1
  %29 = icmp slt i32 %28, %12
  br i1 %29, label %26, label %._crit_edge.loopexit, !llvm.loop !6

._crit_edge.loopexit:                             ; preds = %26
  %30 = trunc nuw i64 %indvars.iv.next to i32
  br label %._crit_edge

._crit_edge:                                      ; preds = %._crit_edge.loopexit, %17
  %.0.lcssa = phi i32 [ 0, %17 ], [ %30, %._crit_edge.loopexit ]
  store i32 %.0.lcssa, ptr %3, align 4
  %31 = getelementptr inbounds nuw i8, ptr %3, i64 60
  %32 = zext nneg i32 %.0.lcssa to i64
  %33 = getelementptr inbounds [65 x i32], ptr %31, i64 0, i64 %32
  store i32 %12, ptr %33, align 4
  %34 = getelementptr inbounds nuw i8, ptr %3, i64 56
  %35 = load i32, ptr %34, align 4
  %36 = sub nsw i32 %35, %19
  %spec.select = tail call i32 @llvm.smax.i32(i32 %36, i32 0)
  %37 = getelementptr inbounds nuw i8, ptr %3, i64 44
  store i32 %spec.select, ptr %37, align 4
  %38 = ashr i32 %13, %spec.select
  %39 = getelementptr inbounds nuw i8, ptr %3, i64 12
  store i32 %38, ptr %39, align 4
  %40 = load i32, ptr %5, align 4
  %41 = shl i32 %23, %40
  %42 = getelementptr inbounds nuw i8, ptr %3, i64 32
  %43 = tail call i32 @llvm.smin.i32(i32 %41, i32 %2)
  store i32 %43, ptr %42, align 4
  %44 = icmp ugt i32 %.0.lcssa, 1
  br i1 %44, label %.sink.split, label %76

45:                                               ; preds = %4
  %46 = load i32, ptr %3, align 4
  br label %47

47:                                               ; preds = %47, %45
  %.0.i = phi i32 [ 0, %45 ], [ %50, %47 ]
  %48 = shl nuw i32 1, %.0.i
  %49 = icmp slt i32 %48, %46
  %50 = add nuw nsw i32 %.0.i, 1
  br i1 %49, label %47, label %tile_log2.exit, !llvm.loop !4

tile_log2.exit:                                   ; preds = %47
  %51 = mul nsw i32 %13, %12
  %52 = getelementptr inbounds nuw i8, ptr %3, i64 24
  store i32 %.0.i, ptr %52, align 4
  %53 = icmp sgt i32 %46, 0
  br i1 %53, label %.lr.ph100, label %._crit_edge101

.lr.ph100:                                        ; preds = %tile_log2.exit
  %54 = getelementptr inbounds nuw i8, ptr %3, i64 60
  %55 = add nsw i32 %46, -1
  %56 = zext nneg i32 %55 to i64
  %wide.trip.count = zext nneg i32 %46 to i64
  %.pre = load i32, ptr %54, align 4
  br label %57

57:                                               ; preds = %.lr.ph100, %57
  %58 = phi i32 [ %.pre, %.lr.ph100 ], [ %60, %57 ]
  %indvars.iv106 = phi i64 [ 0, %.lr.ph100 ], [ %indvars.iv.next107, %57 ]
  %.08198 = phi i32 [ 65536, %.lr.ph100 ], [ %.182, %57 ]
  %.08397 = phi i32 [ 1, %.lr.ph100 ], [ %62, %57 ]
  %indvars.iv.next107 = add nuw nsw i64 %indvars.iv106, 1
  %59 = getelementptr inbounds [65 x i32], ptr %54, i64 0, i64 %indvars.iv.next107
  %60 = load i32, ptr %59, align 4
  %61 = sub nsw i32 %60, %58
  %62 = tail call i32 @llvm.smax.i32(i32 %.08397, i32 %61)
  %63 = icmp ult i64 %indvars.iv106, %56
  %64 = tail call i32 @llvm.smin.i32(i32 %.08198, i32 %61)
  %.182 = select i1 %63, i32 %64, i32 %.08198
  %exitcond.not = icmp eq i64 %indvars.iv.next107, %wide.trip.count
  br i1 %exitcond.not, label %._crit_edge101, label %57, !llvm.loop !7

._crit_edge101:                                   ; preds = %57, %tile_log2.exit
  %.083.lcssa = phi i32 [ 1, %tile_log2.exit ], [ %62, %57 ]
  %.081.lcssa = phi i32 [ 65536, %tile_log2.exit ], [ %.182, %57 ]
  %65 = getelementptr inbounds nuw i8, ptr %3, i64 56
  %66 = load i32, ptr %65, align 4
  %.not93 = icmp eq i32 %66, 0
  %67 = add nsw i32 %66, 1
  %68 = select i1 %.not93, i32 0, i32 %67
  %.084 = ashr i32 %51, %68
  %69 = sdiv i32 %.084, %.083.lcssa
  %70 = tail call i32 @llvm.smax.i32(i32 %69, i32 1)
  %71 = getelementptr inbounds nuw i8, ptr %3, i64 12
  store i32 %70, ptr %71, align 4
  %72 = icmp sgt i32 %46, 1
  br i1 %72, label %73, label %76

73:                                               ; preds = %._crit_edge101
  %74 = load i32, ptr %5, align 4
  %75 = shl i32 %.081.lcssa, %74
  br label %.sink.split

.sink.split:                                      ; preds = %._crit_edge, %73
  %.sink = phi i32 [ %75, %73 ], [ %43, %._crit_edge ]
  store i32 %.sink, ptr %14, align 4
  br label %76

76:                                               ; preds = %.sink.split, %._crit_edge101, %._crit_edge
  ret void
}